; ModuleID = '40/1159.c'
source_filename = "40/1159.c"
target datalayout = "e-m:e-p270:32:32-p271:32:32-p272:64:64-i64:64-f80:128-n8:16:32:64-S128"
target triple = "x86_64-pc-linux-gnu"

@.str = private unnamed_addr constant [13 x i8] c"%lf%lf%lf%lf\00", align 1
@.str.1 = private unnamed_addr constant [4 x i8] c"%lf\00", align 1
@.str.2 = private unnamed_addr constant [14 x i8] c"Invalid input\00", align 1
@.str.3 = private unnamed_addr constant [6 x i8] c"%.4lf\00", align 1

; Function Attrs: noinline nounwind uwtable
define dso_local i32 @main() #0 {
  %1 = alloca i32, align 4
  %2 = alloca double, align 8
  %3 = alloca double, align 8
  %4 = alloca double, align 8
  %5 = alloca double, align 8
  %6 = alloca double, align 8
  %7 = alloca double, align 8
  %8 = alloca double, align 8
  %9 = alloca double, align 8
  store i32 0, i32* %1, align 4
  %10 = call i32 (i8*, ...) @__isoc99_scanf(i8* getelementptr inbounds ([13 x i8], [13 x i8]* @.str, i64 0, i64 0), double* %2, double* %3, double* %4, double* %5)
  %11 = load double, double* %2, align 8
  %12 = load double, double* %3, align 8
  %13 = fadd double %11, %12
  %14 = load double, double* %4, align 8
  %15 = fadd double %13, %14
  %16 = load double, double* %5, align 8
  %17 = fadd double %15, %16
  %18 = fdiv double %17, 2.000000e+00
  store double %18, double* %6, align 8
  %19 = call i32 (i8*, ...) @__isoc99_scanf(i8* getelementptr inbounds ([4 x i8], [4 x i8]* @.str.1, i64 0, i64 0), double* %8)
  %20 = load double, double* %8, align 8
  %21 = fdiv double %20, 3.600000e+02
  %22 = fmul double %21, 0x400921FB4D12D84A
  store double %22, double* %8, align 8
  %23 = load double, double* %6, align 8
  %24 = load double, double* %2, align 8
  %25 = fsub double %23, %24
  %26 = load double, double* %6, align 8
  %27 = load double, double* %3, align 8
  %28 = fsub double %26, %27
  %29 = fmul double %25, %28
  %30 = load double, double* %6, align 8
  %31 = load double, double* %4, align 8
  %32 = fsub double %30, %31
  %33 = fmul double %29, %32
  %34 = load double, double* %6, align 8
  %35 = load double, double* %5, align 8
  %36 = fsub double %34, %35
  %37 = fmul double %33, %36
  store double %37, double* %9, align 8
  %38 = load double, double* %6, align 8
  %39 = load double, double* %2, align 8
  %40 = fsub double %38, %39
  %41 = load double, double* %6, align 8
  %42 = load double, double* %3, align 8
  %43 = fsub double %41, %42
  %44 = fmul double %40, %43
  %45 = load double, double* %6, align 8
  %46 = load double, double* %4, align 8
  %47 = fsub double %45, %46
  %48 = fmul double %44, %47
  %49 = load double, double* %6, align 8
  %50 = load double, double* %5, align 8
  %51 = fsub double %49, %50
  %52 = fmul double %48, %51
  %53 = load double, double* %2, align 8
  %54 = load double, double* %3, align 8
  %55 = fmul double %53, %54
  %56 = load double, double* %4, align 8
  %57 = fmul double %55, %56
  %58 = load double, double* %5, align 8
  %59 = fmul double %57, %58
  %60 = load double, double* %8, align 8
  %61 = call double @cos(double %60) #3
  %62 = fmul double %59, %61
  %63 = load double, double* %8, align 8
  %64 = call double @cos(double %63) #3
  %65 = fmul double %62, %64
  %66 = fsub double %52, %65
  %67 = call double @sqrt(double %66) #3
  store double %67, double* %7, align 8
  %68 = load double, double* %9, align 8
  %69 = fcmp olt double %68, 0.000000e+00
  br i1 %69, label %70, label %72

70:                                               ; preds = %0
  %71 = call i32 (i8*, ...) @printf(i8* getelementptr inbounds ([14 x i8], [14 x i8]* @.str.2, i64 0, i64 0))
  br label %75

72:                                               ; preds = %0
  %73 = load double, double* %7, align 8
  %74 = call i32 (i8*, ...) @printf(i8* getelementptr inbounds ([6 x i8], [6 x i8]* @.str.3, i64 0, i64 0), double %73)
  br label %75

75:                                               ; preds = %72, %70
  ret i32 0
}

declare dso_local i32 @__isoc99_scanf(i8*, ...) #1

; Function Attrs: nounwind
declare dso_local double @sqrt(double) #2

; Function Attrs: nounwind
declare dso_local double @cos(double) #2

declare dso_local i32 @printf(i8*, ...) #1


!llvm.module.flags = !{!0}
!llvm.ident = !{!1}

!0 = !{i32 1, !"wchar_size", i32 4}
!1 = !{!"clang version 10.0.0-4ubuntu1 "}
